
WirelessController.elf:     file format elf32-avr

Sections:
Idx Name          Size      VMA       LMA       File off  Algn
  0 .data         0000000a  00800100  00000888  0000091c  2**0
                  CONTENTS, ALLOC, LOAD, DATA
  1 .text         00000888  00000000  00000000  00000094  2**1
                  CONTENTS, ALLOC, LOAD, READONLY, CODE
  2 .bss          00000001  0080010a  0080010a  00000926  2**0
                  ALLOC

Disassembly of section .text:

00000000 <__vectors>:
   0:	0c 94 34 00 	jmp	0x68	; 0x68 <__ctors_end>
   4:	0c 94 51 00 	jmp	0xa2	; 0xa2 <__bad_interrupt>
   8:	0c 94 51 00 	jmp	0xa2	; 0xa2 <__bad_interrupt>
   c:	0c 94 51 00 	jmp	0xa2	; 0xa2 <__bad_interrupt>
  10:	0c 94 51 00 	jmp	0xa2	; 0xa2 <__bad_interrupt>
  14:	0c 94 51 00 	jmp	0xa2	; 0xa2 <__bad_interrupt>
  18:	0c 94 51 00 	jmp	0xa2	; 0xa2 <__bad_interrupt>
  1c:	0c 94 51 00 	jmp	0xa2	; 0xa2 <__bad_interrupt>
  20:	0c 94 51 00 	jmp	0xa2	; 0xa2 <__bad_interrupt>
  24:	0c 94 51 00 	jmp	0xa2	; 0xa2 <__bad_interrupt>
  28:	0c 94 51 00 	jmp	0xa2	; 0xa2 <__bad_interrupt>
  2c:	0c 94 0e 04 	jmp	0x81c	; 0x81c <__vector_11>
  30:	0c 94 51 00 	jmp	0xa2	; 0xa2 <__bad_interrupt>
  34:	0c 94 51 00 	jmp	0xa2	; 0xa2 <__bad_interrupt>
  38:	0c 94 51 00 	jmp	0xa2	; 0xa2 <__bad_interrupt>
  3c:	0c 94 51 00 	jmp	0xa2	; 0xa2 <__bad_interrupt>
  40:	0c 94 51 00 	jmp	0xa2	; 0xa2 <__bad_interrupt>
  44:	0c 94 51 00 	jmp	0xa2	; 0xa2 <__bad_interrupt>
  48:	0c 94 51 00 	jmp	0xa2	; 0xa2 <__bad_interrupt>
  4c:	0c 94 51 00 	jmp	0xa2	; 0xa2 <__bad_interrupt>
  50:	0c 94 51 00 	jmp	0xa2	; 0xa2 <__bad_interrupt>
  54:	0c 94 51 00 	jmp	0xa2	; 0xa2 <__bad_interrupt>
  58:	0c 94 51 00 	jmp	0xa2	; 0xa2 <__bad_interrupt>
  5c:	0c 94 51 00 	jmp	0xa2	; 0xa2 <__bad_interrupt>
  60:	0c 94 51 00 	jmp	0xa2	; 0xa2 <__bad_interrupt>
  64:	0c 94 51 00 	jmp	0xa2	; 0xa2 <__bad_interrupt>

00000068 <__ctors_end>:
  68:	11 24       	eor	r1, r1
  6a:	1f be       	out	0x3f, r1	; 63
  6c:	cf ef       	ldi	r28, 0xFF	; 255
  6e:	d8 e0       	ldi	r29, 0x08	; 8
  70:	de bf       	out	0x3e, r29	; 62
  72:	cd bf       	out	0x3d, r28	; 61

00000074 <__do_copy_data>:
  74:	11 e0       	ldi	r17, 0x01	; 1
  76:	a0 e0       	ldi	r26, 0x00	; 0
  78:	b1 e0       	ldi	r27, 0x01	; 1
  7a:	e8 e8       	ldi	r30, 0x88	; 136
  7c:	f8 e0       	ldi	r31, 0x08	; 8
  7e:	02 c0       	rjmp	.+4      	; 0x84 <.do_copy_data_start>

00000080 <.do_copy_data_loop>:
  80:	05 90       	lpm	r0, Z+
  82:	0d 92       	st	X+, r0

00000084 <.do_copy_data_start>:
  84:	aa 30       	cpi	r26, 0x0A	; 10
  86:	b1 07       	cpc	r27, r17
  88:	d9 f7       	brne	.-10     	; 0x80 <.do_copy_data_loop>

0000008a <__do_clear_bss>:
  8a:	11 e0       	ldi	r17, 0x01	; 1
  8c:	aa e0       	ldi	r26, 0x0A	; 10
  8e:	b1 e0       	ldi	r27, 0x01	; 1
  90:	01 c0       	rjmp	.+2      	; 0x94 <.do_clear_bss_start>

00000092 <.do_clear_bss_loop>:
  92:	1d 92       	st	X+, r1

00000094 <.do_clear_bss_start>:
  94:	ab 30       	cpi	r26, 0x0B	; 11
  96:	b1 07       	cpc	r27, r17
  98:	e1 f7       	brne	.-8      	; 0x92 <.do_clear_bss_loop>
  9a:	0e 94 52 01 	call	0x2a4	; 0x2a4 <main>
  9e:	0c 94 42 04 	jmp	0x884	; 0x884 <_exit>

000000a2 <__bad_interrupt>:
  a2:	0c 94 00 00 	jmp	0	; 0x0 <__vectors>

000000a6 <gpio_init>:
  a6:	20 9a       	sbi	0x04, 0	; 4
  a8:	53 98       	cbi	0x0a, 3	; 10
  aa:	54 98       	cbi	0x0a, 4	; 10
  ac:	55 98       	cbi	0x0a, 5	; 10
  ae:	56 98       	cbi	0x0a, 6	; 10
  b0:	57 98       	cbi	0x0a, 7	; 10
  b2:	5b 9a       	sbi	0x0b, 3	; 11
  b4:	5c 9a       	sbi	0x0b, 4	; 11
  b6:	5d 9a       	sbi	0x0b, 5	; 11
  b8:	5e 9a       	sbi	0x0b, 6	; 11
  ba:	5f 9a       	sbi	0x0b, 7	; 11
  bc:	08 95       	ret

000000be <digital_read>:
  be:	fc 01       	movw	r30, r24
  c0:	99 b1       	in	r25, 0x09	; 9
  c2:	89 2f       	mov	r24, r25
  c4:	93 fd       	sbrc	r25, 3
  c6:	02 c0       	rjmp	.+4      	; 0xcc <digital_read+0xe>
  c8:	20 e1       	ldi	r18, 0x10	; 16
  ca:	01 c0       	rjmp	.+2      	; 0xce <digital_read+0x10>
  cc:	20 e0       	ldi	r18, 0x00	; 0
  ce:	84 ff       	sbrs	r24, 4
  d0:	21 60       	ori	r18, 0x01	; 1
  d2:	85 ff       	sbrs	r24, 5
  d4:	24 60       	ori	r18, 0x04	; 4
  d6:	86 ff       	sbrs	r24, 6
  d8:	28 60       	ori	r18, 0x08	; 8
  da:	97 ff       	sbrs	r25, 7
  dc:	22 60       	ori	r18, 0x02	; 2
  de:	30 e0       	ldi	r19, 0x00	; 0
  e0:	40 e0       	ldi	r20, 0x00	; 0
  e2:	50 e0       	ldi	r21, 0x00	; 0
  e4:	80 81       	ld	r24, Z
  e6:	91 81       	ldd	r25, Z+1	; 0x01
  e8:	a2 81       	ldd	r26, Z+2	; 0x02
  ea:	b3 81       	ldd	r27, Z+3	; 0x03
  ec:	80 7e       	andi	r24, 0xE0	; 224
  ee:	28 2b       	or	r18, r24
  f0:	39 2b       	or	r19, r25
  f2:	4a 2b       	or	r20, r26
  f4:	5b 2b       	or	r21, r27
  f6:	20 83       	st	Z, r18
  f8:	31 83       	std	Z+1, r19	; 0x01
  fa:	42 83       	std	Z+2, r20	; 0x02
  fc:	53 83       	std	Z+3, r21	; 0x03
  fe:	08 95       	ret

00000100 <analog_read>:
 100:	af 92       	push	r10
 102:	bf 92       	push	r11
 104:	cf 92       	push	r12
 106:	df 92       	push	r13
 108:	ef 92       	push	r14
 10a:	ff 92       	push	r15
 10c:	0f 93       	push	r16
 10e:	1f 93       	push	r17
 110:	fc 01       	movw	r30, r24
 112:	5a 01       	movw	r10, r20
 114:	6b 01       	movw	r12, r22
 116:	78 01       	movw	r14, r16
 118:	89 01       	movw	r16, r18
 11a:	80 91 64 00 	lds	r24, 0x0064
 11e:	8e 7f       	andi	r24, 0xFE	; 254
 120:	80 93 64 00 	sts	0x0064, r24
 124:	80 91 7a 00 	lds	r24, 0x007A
 128:	80 68       	ori	r24, 0x80	; 128
 12a:	80 93 7a 00 	sts	0x007A, r24
 12e:	81 e0       	ldi	r24, 0x01	; 1
 130:	80 93 7c 00 	sts	0x007C, r24
 134:	80 91 7a 00 	lds	r24, 0x007A
 138:	80 64       	ori	r24, 0x40	; 64
 13a:	80 93 7a 00 	sts	0x007A, r24
 13e:	80 91 7a 00 	lds	r24, 0x007A
 142:	86 fd       	sbrc	r24, 6
 144:	fc cf       	rjmp	.-8      	; 0x13e <analog_read+0x3e>
 146:	60 91 78 00 	lds	r22, 0x0078
 14a:	70 91 79 00 	lds	r23, 0x0079
 14e:	e1 14       	cp	r14, r1
 150:	f1 04       	cpc	r15, r1
 152:	01 05       	cpc	r16, r1
 154:	11 05       	cpc	r17, r1
 156:	39 f1       	breq	.+78     	; 0x1a6 <analog_read+0xa6>
 158:	9b 01       	movw	r18, r22
 15a:	40 e0       	ldi	r20, 0x00	; 0
 15c:	50 e0       	ldi	r21, 0x00	; 0
 15e:	d8 01       	movw	r26, r16
 160:	c7 01       	movw	r24, r14
 162:	05 97       	sbiw	r24, 0x05	; 5
 164:	a1 09       	sbc	r26, r1
 166:	b1 09       	sbc	r27, r1
 168:	82 17       	cp	r24, r18
 16a:	93 07       	cpc	r25, r19
 16c:	a4 07       	cpc	r26, r20
 16e:	b5 07       	cpc	r27, r21
 170:	d0 f4       	brcc	.+52     	; 0x1a6 <analog_read+0xa6>
 172:	85 e0       	ldi	r24, 0x05	; 5
 174:	90 e0       	ldi	r25, 0x00	; 0
 176:	a0 e0       	ldi	r26, 0x00	; 0
 178:	b0 e0       	ldi	r27, 0x00	; 0
 17a:	e8 0e       	add	r14, r24
 17c:	f9 1e       	adc	r15, r25
 17e:	0a 1f       	adc	r16, r26
 180:	1b 1f       	adc	r17, r27
 182:	2e 15       	cp	r18, r14
 184:	3f 05       	cpc	r19, r15
 186:	40 07       	cpc	r20, r16
 188:	51 07       	cpc	r21, r17
 18a:	68 f4       	brcc	.+26     	; 0x1a6 <analog_read+0xa6>
 18c:	80 81       	ld	r24, Z
 18e:	91 81       	ldd	r25, Z+1	; 0x01
 190:	a2 81       	ldd	r26, Z+2	; 0x02
 192:	b3 81       	ldd	r27, Z+3	; 0x03
 194:	9f 77       	andi	r25, 0x7F	; 127
 196:	a0 70       	andi	r26, 0x00	; 0
 198:	be 7f       	andi	r27, 0xFE	; 254
 19a:	b1 60       	ori	r27, 0x01	; 1
 19c:	80 83       	st	Z, r24
 19e:	91 83       	std	Z+1, r25	; 0x01
 1a0:	a2 83       	std	Z+2, r26	; 0x02
 1a2:	b3 83       	std	Z+3, r27	; 0x03
 1a4:	19 c0       	rjmp	.+50     	; 0x1d8 <analog_read+0xd8>
 1a6:	20 81       	ld	r18, Z
 1a8:	31 81       	ldd	r19, Z+1	; 0x01
 1aa:	42 81       	ldd	r20, Z+2	; 0x02
 1ac:	53 81       	ldd	r21, Z+3	; 0x03
 1ae:	3f 77       	andi	r19, 0x7F	; 127
 1b0:	40 70       	andi	r20, 0x00	; 0
 1b2:	5e 7f       	andi	r21, 0xFE	; 254
 1b4:	cb 01       	movw	r24, r22
 1b6:	a0 e0       	ldi	r26, 0x00	; 0
 1b8:	b0 e0       	ldi	r27, 0x00	; 0
 1ba:	7f e0       	ldi	r23, 0x0F	; 15
 1bc:	88 0f       	add	r24, r24
 1be:	99 1f       	adc	r25, r25
 1c0:	aa 1f       	adc	r26, r26
 1c2:	bb 1f       	adc	r27, r27
 1c4:	7a 95       	dec	r23
 1c6:	d1 f7       	brne	.-12     	; 0x1bc <analog_read+0xbc>
 1c8:	28 2b       	or	r18, r24
 1ca:	39 2b       	or	r19, r25
 1cc:	4a 2b       	or	r20, r26
 1ce:	5b 2b       	or	r21, r27
 1d0:	20 83       	st	Z, r18
 1d2:	31 83       	std	Z+1, r19	; 0x01
 1d4:	42 83       	std	Z+2, r20	; 0x02
 1d6:	53 83       	std	Z+3, r21	; 0x03
 1d8:	82 e0       	ldi	r24, 0x02	; 2
 1da:	80 93 7c 00 	sts	0x007C, r24
 1de:	80 91 7a 00 	lds	r24, 0x007A
 1e2:	80 64       	ori	r24, 0x40	; 64
 1e4:	80 93 7a 00 	sts	0x007A, r24
 1e8:	80 91 7a 00 	lds	r24, 0x007A
 1ec:	86 fd       	sbrc	r24, 6
 1ee:	fc cf       	rjmp	.-8      	; 0x1e8 <analog_read+0xe8>
 1f0:	60 91 78 00 	lds	r22, 0x0078
 1f4:	70 91 79 00 	lds	r23, 0x0079
 1f8:	a1 14       	cp	r10, r1
 1fa:	b1 04       	cpc	r11, r1
 1fc:	c1 04       	cpc	r12, r1
 1fe:	d1 04       	cpc	r13, r1
 200:	31 f1       	breq	.+76     	; 0x24e <analog_read+0x14e>
 202:	9b 01       	movw	r18, r22
 204:	40 e0       	ldi	r20, 0x00	; 0
 206:	50 e0       	ldi	r21, 0x00	; 0
 208:	d6 01       	movw	r26, r12
 20a:	c5 01       	movw	r24, r10
 20c:	05 97       	sbiw	r24, 0x05	; 5
 20e:	a1 09       	sbc	r26, r1
 210:	b1 09       	sbc	r27, r1
 212:	82 17       	cp	r24, r18
 214:	93 07       	cpc	r25, r19
 216:	a4 07       	cpc	r26, r20
 218:	b5 07       	cpc	r27, r21
 21a:	c8 f4       	brcc	.+50     	; 0x24e <analog_read+0x14e>
 21c:	85 e0       	ldi	r24, 0x05	; 5
 21e:	90 e0       	ldi	r25, 0x00	; 0
 220:	a0 e0       	ldi	r26, 0x00	; 0
 222:	b0 e0       	ldi	r27, 0x00	; 0
 224:	a8 0e       	add	r10, r24
 226:	b9 1e       	adc	r11, r25
 228:	ca 1e       	adc	r12, r26
 22a:	db 1e       	adc	r13, r27
 22c:	2a 15       	cp	r18, r10
 22e:	3b 05       	cpc	r19, r11
 230:	4c 05       	cpc	r20, r12
 232:	5d 05       	cpc	r21, r13
 234:	60 f4       	brcc	.+24     	; 0x24e <analog_read+0x14e>
 236:	80 81       	ld	r24, Z
 238:	91 81       	ldd	r25, Z+1	; 0x01
 23a:	a2 81       	ldd	r26, Z+2	; 0x02
 23c:	b3 81       	ldd	r27, Z+3	; 0x03
 23e:	8f 71       	andi	r24, 0x1F	; 31
 240:	90 78       	andi	r25, 0x80	; 128
 242:	90 64       	ori	r25, 0x40	; 64
 244:	80 83       	st	Z, r24
 246:	91 83       	std	Z+1, r25	; 0x01
 248:	a2 83       	std	Z+2, r26	; 0x02
 24a:	b3 83       	std	Z+3, r27	; 0x03
 24c:	18 c0       	rjmp	.+48     	; 0x27e <analog_read+0x17e>
 24e:	20 81       	ld	r18, Z
 250:	31 81       	ldd	r19, Z+1	; 0x01
 252:	42 81       	ldd	r20, Z+2	; 0x02
 254:	53 81       	ldd	r21, Z+3	; 0x03
 256:	2f 71       	andi	r18, 0x1F	; 31
 258:	30 78       	andi	r19, 0x80	; 128
 25a:	cb 01       	movw	r24, r22
 25c:	a0 e0       	ldi	r26, 0x00	; 0
 25e:	b0 e0       	ldi	r27, 0x00	; 0
 260:	65 e0       	ldi	r22, 0x05	; 5
 262:	88 0f       	add	r24, r24
 264:	99 1f       	adc	r25, r25
 266:	aa 1f       	adc	r26, r26
 268:	bb 1f       	adc	r27, r27
 26a:	6a 95       	dec	r22
 26c:	d1 f7       	brne	.-12     	; 0x262 <analog_read+0x162>
 26e:	28 2b       	or	r18, r24
 270:	39 2b       	or	r19, r25
 272:	4a 2b       	or	r20, r26
 274:	5b 2b       	or	r21, r27
 276:	20 83       	st	Z, r18
 278:	31 83       	std	Z+1, r19	; 0x01
 27a:	42 83       	std	Z+2, r20	; 0x02
 27c:	53 83       	std	Z+3, r21	; 0x03
 27e:	80 91 64 00 	lds	r24, 0x0064
 282:	81 60       	ori	r24, 0x01	; 1
 284:	80 93 64 00 	sts	0x0064, r24
 288:	80 91 7a 00 	lds	r24, 0x007A
 28c:	8f 77       	andi	r24, 0x7F	; 127
 28e:	80 93 7a 00 	sts	0x007A, r24
 292:	1f 91       	pop	r17
 294:	0f 91       	pop	r16
 296:	ff 90       	pop	r15
 298:	ef 90       	pop	r14
 29a:	df 90       	pop	r13
 29c:	cf 90       	pop	r12
 29e:	bf 90       	pop	r11
 2a0:	af 90       	pop	r10
 2a2:	08 95       	ret

000002a4 <main>:
 2a4:	2f 92       	push	r2
 2a6:	3f 92       	push	r3
 2a8:	4f 92       	push	r4
 2aa:	5f 92       	push	r5
 2ac:	6f 92       	push	r6
 2ae:	7f 92       	push	r7
 2b0:	8f 92       	push	r8
 2b2:	9f 92       	push	r9
 2b4:	af 92       	push	r10
 2b6:	bf 92       	push	r11
 2b8:	cf 92       	push	r12
 2ba:	df 92       	push	r13
 2bc:	ef 92       	push	r14
 2be:	ff 92       	push	r15
 2c0:	0f 93       	push	r16
 2c2:	1f 93       	push	r17
 2c4:	df 93       	push	r29
 2c6:	cf 93       	push	r28
 2c8:	00 d0       	rcall	.+0      	; 0x2ca <main+0x26>
 2ca:	00 d0       	rcall	.+0      	; 0x2cc <main+0x28>
 2cc:	cd b7       	in	r28, 0x3d	; 61
 2ce:	de b7       	in	r29, 0x3e	; 62
 2d0:	0e 94 53 00 	call	0xa6	; 0xa6 <gpio_init>
 2d4:	0e 94 c3 03 	call	0x786	; 0x786 <nrf24_init>
 2d8:	0e 94 f9 03 	call	0x7f2	; 0x7f2 <timer_init>
 2dc:	cc 24       	eor	r12, r12
 2de:	dd 24       	eor	r13, r13
 2e0:	76 01       	movw	r14, r12
 2e2:	88 24       	eor	r8, r8
 2e4:	99 24       	eor	r9, r9
 2e6:	54 01       	movw	r10, r8
 2e8:	77 24       	eor	r7, r7
 2ea:	2e 01       	movw	r4, r28
 2ec:	08 94       	sec
 2ee:	41 1c       	adc	r4, r1
 2f0:	51 1c       	adc	r5, r1
 2f2:	c2 01       	movw	r24, r4
 2f4:	40 e0       	ldi	r20, 0x00	; 0
 2f6:	50 e0       	ldi	r21, 0x00	; 0
 2f8:	60 e0       	ldi	r22, 0x00	; 0
 2fa:	70 e0       	ldi	r23, 0x00	; 0
 2fc:	00 e0       	ldi	r16, 0x00	; 0
 2fe:	10 e0       	ldi	r17, 0x00	; 0
 300:	20 e0       	ldi	r18, 0x00	; 0
 302:	30 e0       	ldi	r19, 0x00	; 0
 304:	0e 94 80 00 	call	0x100	; 0x100 <analog_read>
 308:	29 81       	ldd	r18, Y+1	; 0x01
 30a:	3a 81       	ldd	r19, Y+2	; 0x02
 30c:	4b 81       	ldd	r20, Y+3	; 0x03
 30e:	5c 81       	ldd	r21, Y+4	; 0x04
 310:	da 01       	movw	r26, r20
 312:	c9 01       	movw	r24, r18
 314:	80 7e       	andi	r24, 0xE0	; 224
 316:	9f 77       	andi	r25, 0x7F	; 127
 318:	a0 70       	andi	r26, 0x00	; 0
 31a:	b0 70       	andi	r27, 0x00	; 0
 31c:	65 e0       	ldi	r22, 0x05	; 5
 31e:	b6 95       	lsr	r27
 320:	a7 95       	ror	r26
 322:	97 95       	ror	r25
 324:	87 95       	ror	r24
 326:	6a 95       	dec	r22
 328:	d1 f7       	brne	.-12     	; 0x31e <main+0x7a>
 32a:	c8 0e       	add	r12, r24
 32c:	d9 1e       	adc	r13, r25
 32e:	ea 1e       	adc	r14, r26
 330:	fb 1e       	adc	r15, r27
 332:	20 70       	andi	r18, 0x00	; 0
 334:	30 78       	andi	r19, 0x80	; 128
 336:	51 70       	andi	r21, 0x01	; 1
 338:	8f e0       	ldi	r24, 0x0F	; 15
 33a:	56 95       	lsr	r21
 33c:	47 95       	ror	r20
 33e:	37 95       	ror	r19
 340:	27 95       	ror	r18
 342:	8a 95       	dec	r24
 344:	d1 f7       	brne	.-12     	; 0x33a <main+0x96>
 346:	82 0e       	add	r8, r18
 348:	93 1e       	adc	r9, r19
 34a:	a4 1e       	adc	r10, r20
 34c:	b5 1e       	adc	r11, r21
 34e:	73 94       	inc	r7
 350:	8a e0       	ldi	r24, 0x0A	; 10
 352:	78 16       	cp	r7, r24
 354:	71 f6       	brne	.-100    	; 0x2f2 <main+0x4e>
 356:	c7 01       	movw	r24, r14
 358:	b6 01       	movw	r22, r12
 35a:	2a e0       	ldi	r18, 0x0A	; 10
 35c:	30 e0       	ldi	r19, 0x00	; 0
 35e:	40 e0       	ldi	r20, 0x00	; 0
 360:	50 e0       	ldi	r21, 0x00	; 0
 362:	0e 94 20 04 	call	0x840	; 0x840 <__udivmodsi4>
 366:	19 01       	movw	r2, r18
 368:	64 2e       	mov	r6, r20
 36a:	45 2e       	mov	r4, r21
 36c:	c5 01       	movw	r24, r10
 36e:	b4 01       	movw	r22, r8
 370:	2a e0       	ldi	r18, 0x0A	; 10
 372:	30 e0       	ldi	r19, 0x00	; 0
 374:	40 e0       	ldi	r20, 0x00	; 0
 376:	50 e0       	ldi	r21, 0x00	; 0
 378:	0e 94 20 04 	call	0x840	; 0x840 <__udivmodsi4>
 37c:	52 2e       	mov	r5, r18
 37e:	73 2e       	mov	r7, r19
 380:	4a 01       	movw	r8, r20
 382:	5e 01       	movw	r10, r28
 384:	08 94       	sec
 386:	a1 1c       	adc	r10, r1
 388:	b1 1c       	adc	r11, r1
 38a:	c9 80       	ldd	r12, Y+1	; 0x01
 38c:	da 80       	ldd	r13, Y+2	; 0x02
 38e:	eb 80       	ldd	r14, Y+3	; 0x03
 390:	fc 80       	ldd	r15, Y+4	; 0x04
 392:	c5 01       	movw	r24, r10
 394:	0e 94 5f 00 	call	0xbe	; 0xbe <digital_read>
 398:	c5 01       	movw	r24, r10
 39a:	a1 01       	movw	r20, r2
 39c:	66 2d       	mov	r22, r6
 39e:	74 2d       	mov	r23, r4
 3a0:	05 2d       	mov	r16, r5
 3a2:	17 2d       	mov	r17, r7
 3a4:	94 01       	movw	r18, r8
 3a6:	0e 94 80 00 	call	0x100	; 0x100 <analog_read>
 3aa:	89 81       	ldd	r24, Y+1	; 0x01
 3ac:	9a 81       	ldd	r25, Y+2	; 0x02
 3ae:	ab 81       	ldd	r26, Y+3	; 0x03
 3b0:	bc 81       	ldd	r27, Y+4	; 0x04
 3b2:	c8 16       	cp	r12, r24
 3b4:	d9 06       	cpc	r13, r25
 3b6:	ea 06       	cpc	r14, r26
 3b8:	fb 06       	cpc	r15, r27
 3ba:	39 f3       	breq	.-50     	; 0x38a <main+0xe6>
 3bc:	c5 01       	movw	r24, r10
 3be:	0e 94 8d 03 	call	0x71a	; 0x71a <nrf24_send>
 3c2:	0e 94 f4 02 	call	0x5e8	; 0x5e8 <nrf24_isSending>
 3c6:	88 23       	and	r24, r24
 3c8:	e1 f7       	brne	.-8      	; 0x3c2 <main+0x11e>
 3ca:	df cf       	rjmp	.-66     	; 0x38a <main+0xe6>

000003cc <nrf24_payload_length>:
 3cc:	80 91 0a 01 	lds	r24, 0x010A
 3d0:	08 95       	ret

000003d2 <spi_transfer>:
 3d2:	ef 92       	push	r14
 3d4:	ff 92       	push	r15
 3d6:	0f 93       	push	r16
 3d8:	1f 93       	push	r17
 3da:	cf 93       	push	r28
 3dc:	df 93       	push	r29
 3de:	18 2f       	mov	r17, r24
 3e0:	80 e0       	ldi	r24, 0x00	; 0
 3e2:	0e 94 ea 03 	call	0x7d4	; 0x7d4 <nrf24_sck_digitalWrite>
 3e6:	00 e0       	ldi	r16, 0x00	; 0
 3e8:	c7 e0       	ldi	r28, 0x07	; 7
 3ea:	d0 e0       	ldi	r29, 0x00	; 0
 3ec:	e1 2e       	mov	r14, r17
 3ee:	ff 24       	eor	r15, r15
 3f0:	c7 01       	movw	r24, r14
 3f2:	0c 2e       	mov	r0, r28
 3f4:	02 c0       	rjmp	.+4      	; 0x3fa <spi_transfer+0x28>
 3f6:	95 95       	asr	r25
 3f8:	87 95       	ror	r24
 3fa:	0a 94       	dec	r0
 3fc:	e2 f7       	brpl	.-8      	; 0x3f6 <spi_transfer+0x24>
 3fe:	80 ff       	sbrs	r24, 0
 400:	02 c0       	rjmp	.+4      	; 0x406 <spi_transfer+0x34>
 402:	81 e0       	ldi	r24, 0x01	; 1
 404:	01 c0       	rjmp	.+2      	; 0x408 <spi_transfer+0x36>
 406:	80 e0       	ldi	r24, 0x00	; 0
 408:	0e 94 f0 03 	call	0x7e0	; 0x7e0 <nrf24_mosi_digitalWrite>
 40c:	81 e0       	ldi	r24, 0x01	; 1
 40e:	0e 94 ea 03 	call	0x7d4	; 0x7d4 <nrf24_sck_digitalWrite>
 412:	00 0f       	add	r16, r16
 414:	0e 94 f6 03 	call	0x7ec	; 0x7ec <nrf24_miso_digitalRead>
 418:	81 11       	cpse	r24, r1
 41a:	01 60       	ori	r16, 0x01	; 1
 41c:	80 e0       	ldi	r24, 0x00	; 0
 41e:	0e 94 ea 03 	call	0x7d4	; 0x7d4 <nrf24_sck_digitalWrite>
 422:	21 97       	sbiw	r28, 0x01	; 1
 424:	8f ef       	ldi	r24, 0xFF	; 255
 426:	cf 3f       	cpi	r28, 0xFF	; 255
 428:	d8 07       	cpc	r29, r24
 42a:	11 f7       	brne	.-60     	; 0x3f0 <spi_transfer+0x1e>
 42c:	80 2f       	mov	r24, r16
 42e:	df 91       	pop	r29
 430:	cf 91       	pop	r28
 432:	1f 91       	pop	r17
 434:	0f 91       	pop	r16
 436:	ff 90       	pop	r15
 438:	ef 90       	pop	r14
 43a:	08 95       	ret

0000043c <nrf24_configRegister>:
 43c:	0f 93       	push	r16
 43e:	1f 93       	push	r17
 440:	18 2f       	mov	r17, r24
 442:	06 2f       	mov	r16, r22
 444:	80 e0       	ldi	r24, 0x00	; 0
 446:	0e 94 e4 03 	call	0x7c8	; 0x7c8 <nrf24_csn_digitalWrite>
 44a:	1f 71       	andi	r17, 0x1F	; 31
 44c:	81 2f       	mov	r24, r17
 44e:	80 62       	ori	r24, 0x20	; 32
 450:	0e 94 e9 01 	call	0x3d2	; 0x3d2 <spi_transfer>
 454:	80 2f       	mov	r24, r16
 456:	0e 94 e9 01 	call	0x3d2	; 0x3d2 <spi_transfer>
 45a:	81 e0       	ldi	r24, 0x01	; 1
 45c:	0e 94 e4 03 	call	0x7c8	; 0x7c8 <nrf24_csn_digitalWrite>
 460:	1f 91       	pop	r17
 462:	0f 91       	pop	r16
 464:	08 95       	ret

00000466 <nrf24_powerUpTx>:
 466:	87 e0       	ldi	r24, 0x07	; 7
 468:	60 e7       	ldi	r22, 0x70	; 112
 46a:	0e 94 1e 02 	call	0x43c	; 0x43c <nrf24_configRegister>
 46e:	80 e0       	ldi	r24, 0x00	; 0
 470:	6a e0       	ldi	r22, 0x0A	; 10
 472:	0e 94 1e 02 	call	0x43c	; 0x43c <nrf24_configRegister>
 476:	08 95       	ret

00000478 <nrf24_transmitSync>:
 478:	0f 93       	push	r16
 47a:	1f 93       	push	r17
 47c:	cf 93       	push	r28
 47e:	df 93       	push	r29
 480:	06 2f       	mov	r16, r22
 482:	ec 01       	movw	r28, r24
 484:	10 e0       	ldi	r17, 0x00	; 0
 486:	04 c0       	rjmp	.+8      	; 0x490 <nrf24_transmitSync+0x18>
 488:	89 91       	ld	r24, Y+
 48a:	0e 94 e9 01 	call	0x3d2	; 0x3d2 <spi_transfer>
 48e:	1f 5f       	subi	r17, 0xFF	; 255
 490:	10 17       	cp	r17, r16
 492:	d0 f3       	brcs	.-12     	; 0x488 <nrf24_transmitSync+0x10>
 494:	df 91       	pop	r29
 496:	cf 91       	pop	r28
 498:	1f 91       	pop	r17
 49a:	0f 91       	pop	r16
 49c:	08 95       	ret

0000049e <nrf24_writeRegister>:
 49e:	ef 92       	push	r14
 4a0:	ff 92       	push	r15
 4a2:	0f 93       	push	r16
 4a4:	1f 93       	push	r17
 4a6:	18 2f       	mov	r17, r24
 4a8:	7b 01       	movw	r14, r22
 4aa:	04 2f       	mov	r16, r20
 4ac:	80 e0       	ldi	r24, 0x00	; 0
 4ae:	0e 94 e4 03 	call	0x7c8	; 0x7c8 <nrf24_csn_digitalWrite>
 4b2:	1f 71       	andi	r17, 0x1F	; 31
 4b4:	81 2f       	mov	r24, r17
 4b6:	80 62       	ori	r24, 0x20	; 32
 4b8:	0e 94 e9 01 	call	0x3d2	; 0x3d2 <spi_transfer>
 4bc:	c7 01       	movw	r24, r14
 4be:	60 2f       	mov	r22, r16
 4c0:	0e 94 3c 02 	call	0x478	; 0x478 <nrf24_transmitSync>
 4c4:	81 e0       	ldi	r24, 0x01	; 1
 4c6:	0e 94 e4 03 	call	0x7c8	; 0x7c8 <nrf24_csn_digitalWrite>
 4ca:	1f 91       	pop	r17
 4cc:	0f 91       	pop	r16
 4ce:	ff 90       	pop	r15
 4d0:	ef 90       	pop	r14
 4d2:	08 95       	ret

000004d4 <nrf24_tx_address>:
 4d4:	0f 93       	push	r16
 4d6:	1f 93       	push	r17
 4d8:	8c 01       	movw	r16, r24
 4da:	8a e0       	ldi	r24, 0x0A	; 10
 4dc:	b8 01       	movw	r22, r16
 4de:	45 e0       	ldi	r20, 0x05	; 5
 4e0:	0e 94 4f 02 	call	0x49e	; 0x49e <nrf24_writeRegister>
 4e4:	80 e1       	ldi	r24, 0x10	; 16
 4e6:	b8 01       	movw	r22, r16
 4e8:	45 e0       	ldi	r20, 0x05	; 5
 4ea:	0e 94 4f 02 	call	0x49e	; 0x49e <nrf24_writeRegister>
 4ee:	1f 91       	pop	r17
 4f0:	0f 91       	pop	r16
 4f2:	08 95       	ret

000004f4 <nrf24_transferSync>:
 4f4:	df 92       	push	r13
 4f6:	ef 92       	push	r14
 4f8:	ff 92       	push	r15
 4fa:	0f 93       	push	r16
 4fc:	1f 93       	push	r17
 4fe:	cf 93       	push	r28
 500:	df 93       	push	r29
 502:	7b 01       	movw	r14, r22
 504:	d4 2e       	mov	r13, r20
 506:	8c 01       	movw	r16, r24
 508:	c0 e0       	ldi	r28, 0x00	; 0
 50a:	d0 e0       	ldi	r29, 0x00	; 0
 50c:	0a c0       	rjmp	.+20     	; 0x522 <nrf24_transferSync+0x2e>
 50e:	f8 01       	movw	r30, r16
 510:	81 91       	ld	r24, Z+
 512:	8f 01       	movw	r16, r30
 514:	0e 94 e9 01 	call	0x3d2	; 0x3d2 <spi_transfer>
 518:	f7 01       	movw	r30, r14
 51a:	ec 0f       	add	r30, r28
 51c:	fd 1f       	adc	r31, r29
 51e:	80 83       	st	Z, r24
 520:	21 96       	adiw	r28, 0x01	; 1
 522:	cd 15       	cp	r28, r13
 524:	a0 f3       	brcs	.-24     	; 0x50e <nrf24_transferSync+0x1a>
 526:	df 91       	pop	r29
 528:	cf 91       	pop	r28
 52a:	1f 91       	pop	r17
 52c:	0f 91       	pop	r16
 52e:	ff 90       	pop	r15
 530:	ef 90       	pop	r14
 532:	df 90       	pop	r13
 534:	08 95       	ret

00000536 <nrf24_readRegister>:
 536:	ef 92       	push	r14
 538:	ff 92       	push	r15
 53a:	0f 93       	push	r16
 53c:	1f 93       	push	r17
 53e:	18 2f       	mov	r17, r24
 540:	7b 01       	movw	r14, r22
 542:	04 2f       	mov	r16, r20
 544:	80 e0       	ldi	r24, 0x00	; 0
 546:	0e 94 e4 03 	call	0x7c8	; 0x7c8 <nrf24_csn_digitalWrite>
 54a:	81 2f       	mov	r24, r17
 54c:	8f 71       	andi	r24, 0x1F	; 31
 54e:	0e 94 e9 01 	call	0x3d2	; 0x3d2 <spi_transfer>
 552:	c7 01       	movw	r24, r14
 554:	b7 01       	movw	r22, r14
 556:	40 2f       	mov	r20, r16
 558:	0e 94 7a 02 	call	0x4f4	; 0x4f4 <nrf24_transferSync>
 55c:	81 e0       	ldi	r24, 0x01	; 1
 55e:	0e 94 e4 03 	call	0x7c8	; 0x7c8 <nrf24_csn_digitalWrite>
 562:	1f 91       	pop	r17
 564:	0f 91       	pop	r16
 566:	ff 90       	pop	r15
 568:	ef 90       	pop	r14
 56a:	08 95       	ret

0000056c <nrf24_retransmissionCount>:
 56c:	df 93       	push	r29
 56e:	cf 93       	push	r28
 570:	0f 92       	push	r0
 572:	cd b7       	in	r28, 0x3d	; 61
 574:	de b7       	in	r29, 0x3e	; 62
 576:	88 e0       	ldi	r24, 0x08	; 8
 578:	be 01       	movw	r22, r28
 57a:	6f 5f       	subi	r22, 0xFF	; 255
 57c:	7f 4f       	sbci	r23, 0xFF	; 255
 57e:	41 e0       	ldi	r20, 0x01	; 1
 580:	0e 94 9b 02 	call	0x536	; 0x536 <nrf24_readRegister>
 584:	89 81       	ldd	r24, Y+1	; 0x01
 586:	8f 70       	andi	r24, 0x0F	; 15
 588:	0f 90       	pop	r0
 58a:	cf 91       	pop	r28
 58c:	df 91       	pop	r29
 58e:	08 95       	ret

00000590 <nrf24_rxFifoEmpty>:
 590:	df 93       	push	r29
 592:	cf 93       	push	r28
 594:	0f 92       	push	r0
 596:	cd b7       	in	r28, 0x3d	; 61
 598:	de b7       	in	r29, 0x3e	; 62
 59a:	87 e1       	ldi	r24, 0x17	; 23
 59c:	be 01       	movw	r22, r28
 59e:	6f 5f       	subi	r22, 0xFF	; 255
 5a0:	7f 4f       	sbci	r23, 0xFF	; 255
 5a2:	41 e0       	ldi	r20, 0x01	; 1
 5a4:	0e 94 9b 02 	call	0x536	; 0x536 <nrf24_readRegister>
 5a8:	89 81       	ldd	r24, Y+1	; 0x01
 5aa:	81 70       	andi	r24, 0x01	; 1
 5ac:	0f 90       	pop	r0
 5ae:	cf 91       	pop	r28
 5b0:	df 91       	pop	r29
 5b2:	08 95       	ret

000005b4 <nrf24_getStatus>:
 5b4:	1f 93       	push	r17
 5b6:	80 e0       	ldi	r24, 0x00	; 0
 5b8:	0e 94 e4 03 	call	0x7c8	; 0x7c8 <nrf24_csn_digitalWrite>
 5bc:	8f ef       	ldi	r24, 0xFF	; 255
 5be:	0e 94 e9 01 	call	0x3d2	; 0x3d2 <spi_transfer>
 5c2:	18 2f       	mov	r17, r24
 5c4:	81 e0       	ldi	r24, 0x01	; 1
 5c6:	0e 94 e4 03 	call	0x7c8	; 0x7c8 <nrf24_csn_digitalWrite>
 5ca:	81 2f       	mov	r24, r17
 5cc:	1f 91       	pop	r17
 5ce:	08 95       	ret

000005d0 <nrf24_lastMessageStatus>:
 5d0:	0e 94 da 02 	call	0x5b4	; 0x5b4 <nrf24_getStatus>
 5d4:	85 ff       	sbrs	r24, 5
 5d6:	02 c0       	rjmp	.+4      	; 0x5dc <nrf24_lastMessageStatus+0xc>
 5d8:	80 e0       	ldi	r24, 0x00	; 0
 5da:	08 95       	ret
 5dc:	84 fd       	sbrc	r24, 4
 5de:	02 c0       	rjmp	.+4      	; 0x5e4 <nrf24_lastMessageStatus+0x14>
 5e0:	8f ef       	ldi	r24, 0xFF	; 255
 5e2:	08 95       	ret
 5e4:	81 e0       	ldi	r24, 0x01	; 1
 5e6:	08 95       	ret

000005e8 <nrf24_isSending>:
 5e8:	0e 94 da 02 	call	0x5b4	; 0x5b4 <nrf24_getStatus>
 5ec:	90 e0       	ldi	r25, 0x00	; 0
 5ee:	80 73       	andi	r24, 0x30	; 48
 5f0:	09 f4       	brne	.+2      	; 0x5f4 <nrf24_isSending+0xc>
 5f2:	91 e0       	ldi	r25, 0x01	; 1
 5f4:	89 2f       	mov	r24, r25
 5f6:	08 95       	ret

000005f8 <nrf24_dataReady>:
 5f8:	0e 94 da 02 	call	0x5b4	; 0x5b4 <nrf24_getStatus>
 5fc:	86 fd       	sbrc	r24, 6
 5fe:	05 c0       	rjmp	.+10     	; 0x60a <nrf24_dataReady+0x12>
 600:	0e 94 c8 02 	call	0x590	; 0x590 <nrf24_rxFifoEmpty>
 604:	90 e0       	ldi	r25, 0x00	; 0
 606:	88 23       	and	r24, r24
 608:	09 f4       	brne	.+2      	; 0x60c <nrf24_dataReady+0x14>
 60a:	91 e0       	ldi	r25, 0x01	; 1
 60c:	89 2f       	mov	r24, r25
 60e:	08 95       	ret

00000610 <nrf24_getData>:
 610:	0f 93       	push	r16
 612:	1f 93       	push	r17
 614:	8c 01       	movw	r16, r24
 616:	80 e0       	ldi	r24, 0x00	; 0
 618:	0e 94 e4 03 	call	0x7c8	; 0x7c8 <nrf24_csn_digitalWrite>
 61c:	81 e6       	ldi	r24, 0x61	; 97
 61e:	0e 94 e9 01 	call	0x3d2	; 0x3d2 <spi_transfer>
 622:	c8 01       	movw	r24, r16
 624:	b8 01       	movw	r22, r16
 626:	40 91 0a 01 	lds	r20, 0x010A
 62a:	0e 94 7a 02 	call	0x4f4	; 0x4f4 <nrf24_transferSync>
 62e:	81 e0       	ldi	r24, 0x01	; 1
 630:	0e 94 e4 03 	call	0x7c8	; 0x7c8 <nrf24_csn_digitalWrite>
 634:	87 e0       	ldi	r24, 0x07	; 7
 636:	60 e4       	ldi	r22, 0x40	; 64
 638:	0e 94 1e 02 	call	0x43c	; 0x43c <nrf24_configRegister>
 63c:	1f 91       	pop	r17
 63e:	0f 91       	pop	r16
 640:	08 95       	ret

00000642 <nrf24_payloadLength>:
 642:	1f 93       	push	r17
 644:	80 e0       	ldi	r24, 0x00	; 0
 646:	0e 94 e4 03 	call	0x7c8	; 0x7c8 <nrf24_csn_digitalWrite>
 64a:	80 e6       	ldi	r24, 0x60	; 96
 64c:	0e 94 e9 01 	call	0x3d2	; 0x3d2 <spi_transfer>
 650:	80 e0       	ldi	r24, 0x00	; 0
 652:	0e 94 e9 01 	call	0x3d2	; 0x3d2 <spi_transfer>
 656:	18 2f       	mov	r17, r24
 658:	81 e0       	ldi	r24, 0x01	; 1
 65a:	0e 94 e4 03 	call	0x7c8	; 0x7c8 <nrf24_csn_digitalWrite>
 65e:	81 2f       	mov	r24, r17
 660:	1f 91       	pop	r17
 662:	08 95       	ret

00000664 <nrf24_powerDown>:
 664:	80 e0       	ldi	r24, 0x00	; 0
 666:	0e 94 de 03 	call	0x7bc	; 0x7bc <nrf24_ce_digitalWrite>
 66a:	80 e0       	ldi	r24, 0x00	; 0
 66c:	68 e0       	ldi	r22, 0x08	; 8
 66e:	0e 94 1e 02 	call	0x43c	; 0x43c <nrf24_configRegister>
 672:	08 95       	ret

00000674 <nrf24_powerUpRx>:
 674:	80 e0       	ldi	r24, 0x00	; 0
 676:	0e 94 e4 03 	call	0x7c8	; 0x7c8 <nrf24_csn_digitalWrite>
 67a:	82 ee       	ldi	r24, 0xE2	; 226
 67c:	0e 94 e9 01 	call	0x3d2	; 0x3d2 <spi_transfer>
 680:	81 e0       	ldi	r24, 0x01	; 1
 682:	0e 94 e4 03 	call	0x7c8	; 0x7c8 <nrf24_csn_digitalWrite>
 686:	87 e0       	ldi	r24, 0x07	; 7
 688:	60 e7       	ldi	r22, 0x70	; 112
 68a:	0e 94 1e 02 	call	0x43c	; 0x43c <nrf24_configRegister>
 68e:	80 e0       	ldi	r24, 0x00	; 0
 690:	0e 94 de 03 	call	0x7bc	; 0x7bc <nrf24_ce_digitalWrite>
 694:	80 e0       	ldi	r24, 0x00	; 0
 696:	6b e0       	ldi	r22, 0x0B	; 11
 698:	0e 94 1e 02 	call	0x43c	; 0x43c <nrf24_configRegister>
 69c:	81 e0       	ldi	r24, 0x01	; 1
 69e:	0e 94 de 03 	call	0x7bc	; 0x7bc <nrf24_ce_digitalWrite>
 6a2:	08 95       	ret

000006a4 <nrf24_config>:
 6a4:	98 2f       	mov	r25, r24
 6a6:	60 93 0a 01 	sts	0x010A, r22
 6aa:	85 e0       	ldi	r24, 0x05	; 5
 6ac:	69 2f       	mov	r22, r25
 6ae:	0e 94 1e 02 	call	0x43c	; 0x43c <nrf24_configRegister>
 6b2:	81 e1       	ldi	r24, 0x11	; 17
 6b4:	60 e0       	ldi	r22, 0x00	; 0
 6b6:	0e 94 1e 02 	call	0x43c	; 0x43c <nrf24_configRegister>
 6ba:	82 e1       	ldi	r24, 0x12	; 18
 6bc:	60 91 0a 01 	lds	r22, 0x010A
 6c0:	0e 94 1e 02 	call	0x43c	; 0x43c <nrf24_configRegister>
 6c4:	83 e1       	ldi	r24, 0x13	; 19
 6c6:	60 e0       	ldi	r22, 0x00	; 0
 6c8:	0e 94 1e 02 	call	0x43c	; 0x43c <nrf24_configRegister>
 6cc:	84 e1       	ldi	r24, 0x14	; 20
 6ce:	60 e0       	ldi	r22, 0x00	; 0
 6d0:	0e 94 1e 02 	call	0x43c	; 0x43c <nrf24_configRegister>
 6d4:	85 e1       	ldi	r24, 0x15	; 21
 6d6:	60 e0       	ldi	r22, 0x00	; 0
 6d8:	0e 94 1e 02 	call	0x43c	; 0x43c <nrf24_configRegister>
 6dc:	86 e1       	ldi	r24, 0x16	; 22
 6de:	60 e0       	ldi	r22, 0x00	; 0
 6e0:	0e 94 1e 02 	call	0x43c	; 0x43c <nrf24_configRegister>
 6e4:	86 e0       	ldi	r24, 0x06	; 6
 6e6:	66 e0       	ldi	r22, 0x06	; 6
 6e8:	0e 94 1e 02 	call	0x43c	; 0x43c <nrf24_configRegister>
 6ec:	80 e0       	ldi	r24, 0x00	; 0
 6ee:	68 e0       	ldi	r22, 0x08	; 8
 6f0:	0e 94 1e 02 	call	0x43c	; 0x43c <nrf24_configRegister>
 6f4:	81 e0       	ldi	r24, 0x01	; 1
 6f6:	63 e0       	ldi	r22, 0x03	; 3
 6f8:	0e 94 1e 02 	call	0x43c	; 0x43c <nrf24_configRegister>
 6fc:	82 e0       	ldi	r24, 0x02	; 2
 6fe:	63 e0       	ldi	r22, 0x03	; 3
 700:	0e 94 1e 02 	call	0x43c	; 0x43c <nrf24_configRegister>
 704:	84 e0       	ldi	r24, 0x04	; 4
 706:	6f e4       	ldi	r22, 0x4F	; 79
 708:	0e 94 1e 02 	call	0x43c	; 0x43c <nrf24_configRegister>
 70c:	8c e1       	ldi	r24, 0x1C	; 28
 70e:	60 e0       	ldi	r22, 0x00	; 0
 710:	0e 94 1e 02 	call	0x43c	; 0x43c <nrf24_configRegister>
 714:	0e 94 3a 03 	call	0x674	; 0x674 <nrf24_powerUpRx>
 718:	08 95       	ret

0000071a <nrf24_send>:
 71a:	0f 93       	push	r16
 71c:	1f 93       	push	r17
 71e:	8c 01       	movw	r16, r24
 720:	80 e0       	ldi	r24, 0x00	; 0
 722:	0e 94 de 03 	call	0x7bc	; 0x7bc <nrf24_ce_digitalWrite>
 726:	0e 94 33 02 	call	0x466	; 0x466 <nrf24_powerUpTx>
 72a:	80 e0       	ldi	r24, 0x00	; 0
 72c:	0e 94 e4 03 	call	0x7c8	; 0x7c8 <nrf24_csn_digitalWrite>
 730:	81 ee       	ldi	r24, 0xE1	; 225
 732:	0e 94 e9 01 	call	0x3d2	; 0x3d2 <spi_transfer>
 736:	81 e0       	ldi	r24, 0x01	; 1
 738:	0e 94 e4 03 	call	0x7c8	; 0x7c8 <nrf24_csn_digitalWrite>
 73c:	80 e0       	ldi	r24, 0x00	; 0
 73e:	0e 94 e4 03 	call	0x7c8	; 0x7c8 <nrf24_csn_digitalWrite>
 742:	80 ea       	ldi	r24, 0xA0	; 160
 744:	0e 94 e9 01 	call	0x3d2	; 0x3d2 <spi_transfer>
 748:	c8 01       	movw	r24, r16
 74a:	60 91 0a 01 	lds	r22, 0x010A
 74e:	0e 94 3c 02 	call	0x478	; 0x478 <nrf24_transmitSync>
 752:	81 e0       	ldi	r24, 0x01	; 1
 754:	0e 94 e4 03 	call	0x7c8	; 0x7c8 <nrf24_csn_digitalWrite>
 758:	81 e0       	ldi	r24, 0x01	; 1
 75a:	0e 94 de 03 	call	0x7bc	; 0x7bc <nrf24_ce_digitalWrite>
 75e:	1f 91       	pop	r17
 760:	0f 91       	pop	r16
 762:	08 95       	ret

00000764 <nrf24_rx_address>:
 764:	0f 93       	push	r16
 766:	1f 93       	push	r17
 768:	8c 01       	movw	r16, r24
 76a:	80 e0       	ldi	r24, 0x00	; 0
 76c:	0e 94 de 03 	call	0x7bc	; 0x7bc <nrf24_ce_digitalWrite>
 770:	8b e0       	ldi	r24, 0x0B	; 11
 772:	b8 01       	movw	r22, r16
 774:	45 e0       	ldi	r20, 0x05	; 5
 776:	0e 94 4f 02 	call	0x49e	; 0x49e <nrf24_writeRegister>
 77a:	81 e0       	ldi	r24, 0x01	; 1
 77c:	0e 94 de 03 	call	0x7bc	; 0x7bc <nrf24_ce_digitalWrite>
 780:	1f 91       	pop	r17
 782:	0f 91       	pop	r16
 784:	08 95       	ret

00000786 <nrf24_init>:
 786:	0e 94 d8 03 	call	0x7b0	; 0x7b0 <nrf24_setupPins>
 78a:	80 e0       	ldi	r24, 0x00	; 0
 78c:	0e 94 de 03 	call	0x7bc	; 0x7bc <nrf24_ce_digitalWrite>
 790:	81 e0       	ldi	r24, 0x01	; 1
 792:	0e 94 e4 03 	call	0x7c8	; 0x7c8 <nrf24_csn_digitalWrite>
 796:	82 e0       	ldi	r24, 0x02	; 2
 798:	64 e0       	ldi	r22, 0x04	; 4
 79a:	0e 94 52 03 	call	0x6a4	; 0x6a4 <nrf24_config>
 79e:	85 e0       	ldi	r24, 0x05	; 5
 7a0:	91 e0       	ldi	r25, 0x01	; 1
 7a2:	0e 94 6a 02 	call	0x4d4	; 0x4d4 <nrf24_tx_address>
 7a6:	80 e0       	ldi	r24, 0x00	; 0
 7a8:	91 e0       	ldi	r25, 0x01	; 1
 7aa:	0e 94 b2 03 	call	0x764	; 0x764 <nrf24_rx_address>
 7ae:	08 95       	ret

000007b0 <nrf24_setupPins>:
 7b0:	21 9a       	sbi	0x04, 1	; 4
 7b2:	22 9a       	sbi	0x04, 2	; 4
 7b4:	25 9a       	sbi	0x04, 5	; 4
 7b6:	23 9a       	sbi	0x04, 3	; 4
 7b8:	24 98       	cbi	0x04, 4	; 4
 7ba:	08 95       	ret

000007bc <nrf24_ce_digitalWrite>:
 7bc:	88 23       	and	r24, r24
 7be:	11 f0       	breq	.+4      	; 0x7c4 <nrf24_ce_digitalWrite+0x8>
 7c0:	29 9a       	sbi	0x05, 1	; 5
 7c2:	08 95       	ret
 7c4:	29 98       	cbi	0x05, 1	; 5
 7c6:	08 95       	ret

000007c8 <nrf24_csn_digitalWrite>:
 7c8:	88 23       	and	r24, r24
 7ca:	11 f0       	breq	.+4      	; 0x7d0 <nrf24_csn_digitalWrite+0x8>
 7cc:	2a 9a       	sbi	0x05, 2	; 5
 7ce:	08 95       	ret
 7d0:	2a 98       	cbi	0x05, 2	; 5
 7d2:	08 95       	ret

000007d4 <nrf24_sck_digitalWrite>:
 7d4:	88 23       	and	r24, r24
 7d6:	11 f0       	breq	.+4      	; 0x7dc <nrf24_sck_digitalWrite+0x8>
 7d8:	2d 9a       	sbi	0x05, 5	; 5
 7da:	08 95       	ret
 7dc:	2d 98       	cbi	0x05, 5	; 5
 7de:	08 95       	ret

000007e0 <nrf24_mosi_digitalWrite>:
 7e0:	88 23       	and	r24, r24
 7e2:	11 f0       	breq	.+4      	; 0x7e8 <nrf24_mosi_digitalWrite+0x8>
 7e4:	2b 9a       	sbi	0x05, 3	; 5
 7e6:	08 95       	ret
 7e8:	2b 98       	cbi	0x05, 3	; 5
 7ea:	08 95       	ret

000007ec <nrf24_miso_digitalRead>:
 7ec:	83 b1       	in	r24, 0x03	; 3
 7ee:	80 71       	andi	r24, 0x10	; 16
 7f0:	08 95       	ret

000007f2 <timer_init>:
 7f2:	8f ec       	ldi	r24, 0xCF	; 207
 7f4:	93 e0       	ldi	r25, 0x03	; 3
 7f6:	90 93 89 00 	sts	0x0089, r25
 7fa:	80 93 88 00 	sts	0x0088, r24
 7fe:	e1 e8       	ldi	r30, 0x81	; 129
 800:	f0 e0       	ldi	r31, 0x00	; 0
 802:	80 81       	ld	r24, Z
 804:	88 60       	ori	r24, 0x08	; 8
 806:	80 83       	st	Z, r24
 808:	af e6       	ldi	r26, 0x6F	; 111
 80a:	b0 e0       	ldi	r27, 0x00	; 0
 80c:	8c 91       	ld	r24, X
 80e:	82 60       	ori	r24, 0x02	; 2
 810:	8c 93       	st	X, r24
 812:	80 81       	ld	r24, Z
 814:	85 60       	ori	r24, 0x05	; 5
 816:	80 83       	st	Z, r24
 818:	78 94       	sei
 81a:	08 95       	ret

0000081c <__vector_11>:
 81c:	1f 92       	push	r1
 81e:	0f 92       	push	r0
 820:	0f b6       	in	r0, 0x3f	; 63
 822:	0f 92       	push	r0
 824:	11 24       	eor	r1, r1
 826:	8f 93       	push	r24
 828:	9f 93       	push	r25
 82a:	85 b1       	in	r24, 0x05	; 5
 82c:	91 e0       	ldi	r25, 0x01	; 1
 82e:	89 27       	eor	r24, r25
 830:	85 b9       	out	0x05, r24	; 5
 832:	9f 91       	pop	r25
 834:	8f 91       	pop	r24
 836:	0f 90       	pop	r0
 838:	0f be       	out	0x3f, r0	; 63
 83a:	0f 90       	pop	r0
 83c:	1f 90       	pop	r1
 83e:	18 95       	reti

00000840 <__udivmodsi4>:
 840:	a1 e2       	ldi	r26, 0x21	; 33
 842:	1a 2e       	mov	r1, r26
 844:	aa 1b       	sub	r26, r26
 846:	bb 1b       	sub	r27, r27
 848:	fd 01       	movw	r30, r26
 84a:	0d c0       	rjmp	.+26     	; 0x866 <__udivmodsi4_ep>

0000084c <__udivmodsi4_loop>:
 84c:	aa 1f       	adc	r26, r26
 84e:	bb 1f       	adc	r27, r27
 850:	ee 1f       	adc	r30, r30
 852:	ff 1f       	adc	r31, r31
 854:	a2 17       	cp	r26, r18
 856:	b3 07       	cpc	r27, r19
 858:	e4 07       	cpc	r30, r20
 85a:	f5 07       	cpc	r31, r21
 85c:	20 f0       	brcs	.+8      	; 0x866 <__udivmodsi4_ep>
 85e:	a2 1b       	sub	r26, r18
 860:	b3 0b       	sbc	r27, r19
 862:	e4 0b       	sbc	r30, r20
 864:	f5 0b       	sbc	r31, r21

00000866 <__udivmodsi4_ep>:
 866:	66 1f       	adc	r22, r22
 868:	77 1f       	adc	r23, r23
 86a:	88 1f       	adc	r24, r24
 86c:	99 1f       	adc	r25, r25
 86e:	1a 94       	dec	r1
 870:	69 f7       	brne	.-38     	; 0x84c <__udivmodsi4_loop>
 872:	60 95       	com	r22
 874:	70 95       	com	r23
 876:	80 95       	com	r24
 878:	90 95       	com	r25
 87a:	9b 01       	movw	r18, r22
 87c:	ac 01       	movw	r20, r24
 87e:	bd 01       	movw	r22, r26
 880:	cf 01       	movw	r24, r30
 882:	08 95       	ret

00000884 <_exit>:
 884:	f8 94       	cli

00000886 <__stop_program>:
 886:	ff cf       	rjmp	.-2      	; 0x886 <__stop_program>
